; Function Attrs: uwtable
define hidden void @_ZThn32_N6recfun6solver9add_valueEPN3euf5enodeER5modelR10ref_vectorI4expr11ast_managerE(ptr nocapture readnone %this, ptr nocapture noundef readonly %n, ptr nocapture nonnull readnone align 8 %mdl, ptr nocapture noundef nonnull readonly align 8 dereferenceable(16) %values) unnamed_addr #12 align 2 {
entry:
  %m_root.i.i = getelementptr inbounds i8, ptr %n, i64 64
  %0 = load ptr, ptr %m_root.i.i, align 8
  %1 = load ptr, ptr %0, align 8
  %2 = load i32, ptr %1, align 4
  %m_ref_count.i.i.i.i.i.i.i = getelementptr inbounds i8, ptr %1, i64 8
  %3 = load i32, ptr %m_ref_count.i.i.i.i.i.i.i, align 4
  %inc.i.i.i.i.i.i.i = add i32 %3, 1
  store i32 %inc.i.i.i.i.i.i.i, ptr %m_ref_count.i.i.i.i.i.i.i, align 4
  %m_nodes.i.i.i = getelementptr inbounds i8, ptr %values, i64 8
  %4 = load ptr, ptr %m_nodes.i.i.i, align 8
  %idxprom.i.i.i.i = zext i32 %2 to i64
  %arrayidx.i.i.i.i = getelementptr inbounds ptr, ptr %4, i64 %idxprom.i.i.i.i
  %5 = load ptr, ptr %arrayidx.i.i.i.i, align 8
  %6 = load ptr, ptr %values, align 8
  %tobool.not.i.i.i3.i.i.i = icmp eq ptr %5, null
  br i1 %tobool.not.i.i.i3.i.i.i, label %_ZN6recfun6solver9add_valueEPN3euf5enodeER5modelR10ref_vectorI4expr11ast_managerE.exit, label %if.then.i.i.i4.i.i.i

if.then.i.i.i4.i.i.i:                             ; preds = %entry
  %m_ref_count.i.i.i.i5.i.i.i = getelementptr inbounds i8, ptr %5, i64 8
  %7 = load i32, ptr %m_ref_count.i.i.i.i5.i.i.i, align 4
  %dec.i.i.i.i.i.i.i = add i32 %7, -1
  store i32 %dec.i.i.i.i.i.i.i, ptr %m_ref_count.i.i.i.i5.i.i.i, align 4
  %cmp.i.i.i.i.i.i = icmp eq i32 %dec.i.i.i.i.i.i.i, 0
  br i1 %cmp.i.i.i.i.i.i, label %if.then2.i.i.i.i.i.i, label %_ZN6recfun6solver9add_valueEPN3euf5enodeER5modelR10ref_vectorI4expr11ast_managerE.exit

if.then2.i.i.i.i.i.i:                             ; preds = %if.then.i.i.i4.i.i.i
  tail call void @_ZN11ast_manager11delete_nodeEP3ast(ptr noundef nonnull align 8 dereferenceable(976) %6, ptr noundef nonnull %5)
  br label %_ZN6recfun6solver9add_valueEPN3euf5enodeER5modelR10ref_vectorI4expr11ast_managerE.exit

_ZN6recfun6solver9add_valueEPN3euf5enodeER5modelR10ref_vectorI4expr11ast_managerE.exit: ; preds = %entry, %if.then.i.i.i4.i.i.i, %if.then2.i.i.i.i.i.i
  %8 = load ptr, ptr %m_nodes.i.i.i, align 8
  %arrayidx.i7.i.i.i = getelementptr inbounds ptr, ptr %8, i64 %idxprom.i.i.i.i
  store ptr %1, ptr %arrayidx.i7.i.i.i, align 8
  ret void
}